; Function Attrs: mustprogress nounwind uwtable
define void @_ZN7rocksdb16TestRandomRWFileD2Ev(ptr noundef nonnull align 8 captures(none) dereferenceable(32) initializes((0, 8)) %0) unnamed_addr #7 align 2 personality ptr @__gxx_personality_v0 {
  %2 = alloca %"class.rocksdb::Status", align 8
  store ptr getelementptr inbounds nuw inrange(-16, 80) (i8, ptr @_ZTVN7rocksdb16TestRandomRWFileE, i64 16), ptr %0, align 8, !tbaa !22
  %3 = getelementptr inbounds nuw i8, ptr %0, i64 16
  %4 = load i8, ptr %3, align 8, !tbaa !205, !range !48, !noundef !49
  %5 = trunc nuw i8 %4 to i1
  br i1 %5, label %6, label %14

6:                                                ; preds = %1
  call void @llvm.lifetime.start.p0(i64 16, ptr nonnull %2) #22
  store i8 0, ptr %3, align 8, !tbaa !205, !noalias !215
  %7 = getelementptr inbounds nuw i8, ptr %0, i64 8
  %8 = load ptr, ptr %7, align 8, !tbaa !203, !noalias !215
  %9 = load ptr, ptr %8, align 8, !tbaa !22, !noalias !215
  %10 = getelementptr inbounds nuw i8, ptr %9, i64 72
  %11 = load ptr, ptr %10, align 8, !noalias !215
  invoke void %11(ptr dead_on_unwind nonnull writable sret(%"class.rocksdb::Status") align 8 %2, ptr noundef nonnull align 8 dereferenceable(8) %8)
          to label %_ZN7rocksdb16TestRandomRWFile5CloseEv.exit unwind label %20

_ZN7rocksdb16TestRandomRWFile5CloseEv.exit:       ; preds = %6
  %12 = getelementptr inbounds nuw i8, ptr %2, i64 8
  %13 = load ptr, ptr %12, align 8, !tbaa !53
  %.not.i.i = icmp eq ptr %13, null
  br i1 %.not.i.i, label %_ZN7rocksdb6StatusD2Ev.exit, label %_ZNKSt14default_deleteIA_KcEclIS0_EENSt9enable_ifIXsr14is_convertibleIPA_T_PS1_EE5valueEvE4typeEPS5_.exit.i.i

_ZNKSt14default_deleteIA_KcEclIS0_EENSt9enable_ifIXsr14is_convertibleIPA_T_PS1_EE5valueEvE4typeEPS5_.exit.i.i: ; preds = %_ZN7rocksdb16TestRandomRWFile5CloseEv.exit
  call void @_ZdaPv(ptr noundef nonnull %13) #24
  br label %_ZN7rocksdb6StatusD2Ev.exit

_ZN7rocksdb6StatusD2Ev.exit:                      ; preds = %_ZN7rocksdb16TestRandomRWFile5CloseEv.exit, %_ZNKSt14default_deleteIA_KcEclIS0_EENSt9enable_ifIXsr14is_convertibleIPA_T_PS1_EE5valueEvE4typeEPS5_.exit.i.i
  call void @llvm.lifetime.end.p0(i64 16, ptr nonnull %2) #22
  br label %14

14:                                               ; preds = %_ZN7rocksdb6StatusD2Ev.exit, %1
  %15 = getelementptr inbounds nuw i8, ptr %0, i64 8
  %16 = load ptr, ptr %15, align 8, !tbaa !203
  %.not.i = icmp eq ptr %16, null
  br i1 %.not.i, label %_ZNSt10unique_ptrIN7rocksdb12RandomRWFileESt14default_deleteIS1_EED2Ev.exit, label %_ZNKSt14default_deleteIN7rocksdb12RandomRWFileEEclEPS1_.exit.i

_ZNKSt14default_deleteIN7rocksdb12RandomRWFileEEclEPS1_.exit.i: ; preds = %14
  %17 = load ptr, ptr %16, align 8, !tbaa !22
  %18 = getelementptr inbounds nuw i8, ptr %17, i64 8
  %19 = load ptr, ptr %18, align 8
  call void %19(ptr noundef nonnull align 8 dereferenceable(8) %16) #22
  br label %_ZNSt10unique_ptrIN7rocksdb12RandomRWFileESt14default_deleteIS1_EED2Ev.exit

_ZNSt10unique_ptrIN7rocksdb12RandomRWFileESt14default_deleteIS1_EED2Ev.exit: ; preds = %14, %_ZNKSt14default_deleteIN7rocksdb12RandomRWFileEEclEPS1_.exit.i
  store ptr null, ptr %15, align 8, !tbaa !203
  ret void

20:                                               ; preds = %6
  %21 = landingpad { ptr, i32 }
          catch ptr null
  %22 = extractvalue { ptr, i32 } %21, 0
  call void @__clang_call_terminate(ptr %22) #27
  unreachable
}